; ModuleID = '39/677.c'
source_filename = "39/677.c"
target datalayout = "e-m:e-p270:32:32-p271:32:32-p272:64:64-i64:64-f80:128-n8:16:32:64-S128"
target triple = "x86_64-pc-linux-gnu"

%struct.student = type { [20 x i8], i32, i32, i8, i8, i32 }

@.str = private unnamed_addr constant [3 x i8] c"%d\00", align 1
@.str.1 = private unnamed_addr constant [18 x i8] c"%s %d %d %c %c %d\00", align 1
@stu = common dso_local global [100 x %struct.student] zeroinitializer, align 16
@.str.2 = private unnamed_addr constant [10 x i8] c"%s\0A%d\0A%d\0A\00", align 1

; Function Attrs: noinline nounwind uwtable
define dso_local i32 @main(i32 %0, i8** %1) #0 {
  %3 = alloca i32, align 4
  %4 = alloca i32, align 4
  %5 = alloca i8**, align 8
  %6 = alloca i32, align 4
  %7 = alloca i32, align 4
  %8 = alloca i32, align 4
  %9 = alloca i32*, align 8
  %10 = alloca i32, align 4
  %11 = alloca i32, align 4
  store i32 0, i32* %3, align 4
  store i32 %0, i32* %4, align 4
  store i8** %1, i8*** %5, align 8
  store i32 0, i32* %8, align 4
  %12 = call i32 (i8*, ...) @__isoc99_scanf(i8* getelementptr inbounds ([3 x i8], [3 x i8]* @.str, i64 0, i64 0), i32* %7)
  %13 = load i32, i32* %7, align 4
  %14 = sext i32 %13 to i64
  %15 = mul i64 4, %14
  %16 = call noalias i8* @malloc(i64 %15) #3
  %17 = bitcast i8* %16 to i32*
  store i32* %17, i32** %9, align 8
  store i32 0, i32* %6, align 4
  br label %18

18:                                               ; preds = %53, %2
  %19 = load i32, i32* %6, align 4
  %20 = load i32, i32* %7, align 4
  %21 = icmp slt i32 %19, %20
  br i1 %21, label %22, label %56

22:                                               ; preds = %18
  %23 = load i32, i32* %6, align 4
  %24 = sext i32 %23 to i64
  %25 = getelementptr inbounds [100 x %struct.student], [100 x %struct.student]* @stu, i64 0, i64 %24
  %26 = getelementptr inbounds %struct.student, %struct.student* %25, i32 0, i32 0
  %27 = getelementptr inbounds [20 x i8], [20 x i8]* %26, i64 0, i64 0
  %28 = load i32, i32* %6, align 4
  %29 = sext i32 %28 to i64
  %30 = getelementptr inbounds [100 x %struct.student], [100 x %struct.student]* @stu, i64 0, i64 %29
  %31 = getelementptr inbounds %struct.student, %struct.student* %30, i32 0, i32 1
  %32 = load i32, i32* %6, align 4
  %33 = sext i32 %32 to i64
  %34 = getelementptr inbounds [100 x %struct.student], [100 x %struct.student]* @stu, i64 0, i64 %33
  %35 = getelementptr inbounds %struct.student, %struct.student* %34, i32 0, i32 2
  %36 = load i32, i32* %6, align 4
  %37 = sext i32 %36 to i64
  %38 = getelementptr inbounds [100 x %struct.student], [100 x %struct.student]* @stu, i64 0, i64 %37
  %39 = getelementptr inbounds %struct.student, %struct.student* %38, i32 0, i32 3
  %40 = load i32, i32* %6, align 4
  %41 = sext i32 %40 to i64
  %42 = getelementptr inbounds [100 x %struct.student], [100 x %struct.student]* @stu, i64 0, i64 %41
  %43 = getelementptr inbounds %struct.student, %struct.student* %42, i32 0, i32 4
  %44 = load i32, i32* %6, align 4
  %45 = sext i32 %44 to i64
  %46 = getelementptr inbounds [100 x %struct.student], [100 x %struct.student]* @stu, i64 0, i64 %45
  %47 = getelementptr inbounds %struct.student, %struct.student* %46, i32 0, i32 5
  %48 = call i32 (i8*, ...) @__isoc99_scanf(i8* getelementptr inbounds ([18 x i8], [18 x i8]* @.str.1, i64 0, i64 0), i8* %27, i32* %31, i32* %35, i8* %39, i8* %43, i32* %47)
  %49 = load i32*, i32** %9, align 8
  %50 = load i32, i32* %6, align 4
  %51 = sext i32 %50 to i64
  %52 = getelementptr inbounds i32, i32* %49, i64 %51
  store i32 0, i32* %52, align 4
  br label %53

53:                                               ; preds = %22
  %54 = load i32, i32* %6, align 4
  %55 = add nsw i32 %54, 1
  store i32 %55, i32* %6, align 4
  br label %18

56:                                               ; preds = %18
  store i32 0, i32* %6, align 4
  br label %57

57:                                               ; preds = %192, %56
  %58 = load i32, i32* %6, align 4
  %59 = load i32, i32* %7, align 4
  %60 = icmp slt i32 %58, %59
  br i1 %60, label %61, label %195

61:                                               ; preds = %57
  %62 = load i32, i32* %6, align 4
  %63 = sext i32 %62 to i64
  %64 = getelementptr inbounds [100 x %struct.student], [100 x %struct.student]* @stu, i64 0, i64 %63
  %65 = getelementptr inbounds %struct.student, %struct.student* %64, i32 0, i32 1
  %66 = load i32, i32* %65, align 4
  %67 = icmp sgt i32 %66, 80
  br i1 %67, label %68, label %88

68:                                               ; preds = %61
  %69 = load i32, i32* %6, align 4
  %70 = sext i32 %69 to i64
  %71 = getelementptr inbounds [100 x %struct.student], [100 x %struct.student]* @stu, i64 0, i64 %70
  %72 = getelementptr inbounds %struct.student, %struct.student* %71, i32 0, i32 5
  %73 = load i32, i32* %72, align 4
  %74 = icmp sgt i32 %73, 0
  br i1 %74, label %75, label %88

75:                                               ; preds = %68
  %76 = load i32*, i32** %9, align 8
  %77 = load i32, i32* %6, align 4
  %78 = sext i32 %77 to i64
  %79 = getelementptr inbounds i32, i32* %76, i64 %78
  %80 = load i32, i32* %79, align 4
  %81 = add nsw i32 %80, 8000
  %82 = load i32*, i32** %9, align 8
  %83 = load i32, i32* %6, align 4
  %84 = sext i32 %83 to i64
  %85 = getelementptr inbounds i32, i32* %82, i64 %84
  store i32 %81, i32* %85, align 4
  %86 = load i32, i32* %8, align 4
  %87 = add nsw i32 %86, 8000
  store i32 %87, i32* %8, align 4
  br label %88

88:                                               ; preds = %75, %68, %61
  %89 = load i32, i32* %6, align 4
  %90 = sext i32 %89 to i64
  %91 = getelementptr inbounds [100 x %struct.student], [100 x %struct.student]* @stu, i64 0, i64 %90
  %92 = getelementptr inbounds %struct.student, %struct.student* %91, i32 0, i32 1
  %93 = load i32, i32* %92, align 4
  %94 = icmp sgt i32 %93, 85
  br i1 %94, label %95, label %115

95:                                               ; preds = %88
  %96 = load i32, i32* %6, align 4
  %97 = sext i32 %96 to i64
  %98 = getelementptr inbounds [100 x %struct.student], [100 x %struct.student]* @stu, i64 0, i64 %97
  %99 = getelementptr inbounds %struct.student, %struct.student* %98, i32 0, i32 2
  %100 = load i32, i32* %99, align 4
  %101 = icmp sgt i32 %100, 80
  br i1 %101, label %102, label %115

102:                                              ; preds = %95
  %103 = load i32*, i32** %9, align 8
  %104 = load i32, i32* %6, align 4
  %105 = sext i32 %104 to i64
  %106 = getelementptr inbounds i32, i32* %103, i64 %105
  %107 = load i32, i32* %106, align 4
  %108 = add nsw i32 %107, 4000
  %109 = load i32*, i32** %9, align 8
  %110 = load i32, i32* %6, align 4
  %111 = sext i32 %110 to i64
  %112 = getelementptr inbounds i32, i32* %109, i64 %111
  store i32 %108, i32* %112, align 4
  %113 = load i32, i32* %8, align 4
  %114 = add nsw i32 %113, 4000
  store i32 %114, i32* %8, align 4
  br label %115

115:                                              ; preds = %102, %95, %88
  %116 = load i32, i32* %6, align 4
  %117 = sext i32 %116 to i64
  %118 = getelementptr inbounds [100 x %struct.student], [100 x %struct.student]* @stu, i64 0, i64 %117
  %119 = getelementptr inbounds %struct.student, %struct.student* %118, i32 0, i32 1
  %120 = load i32, i32* %119, align 4
  %121 = icmp sgt i32 %120, 90
  br i1 %121, label %122, label %135

122:                                              ; preds = %115
  %123 = load i32*, i32** %9, align 8
  %124 = load i32, i32* %6, align 4
  %125 = sext i32 %124 to i64
  %126 = getelementptr inbounds i32, i32* %123, i64 %125
  %127 = load i32, i32* %126, align 4
  %128 = add nsw i32 %127, 2000
  %129 = load i32*, i32** %9, align 8
  %130 = load i32, i32* %6, align 4
  %131 = sext i32 %130 to i64
  %132 = getelementptr inbounds i32, i32* %129, i64 %131
  store i32 %128, i32* %132, align 4
  %133 = load i32, i32* %8, align 4
  %134 = add nsw i32 %133, 2000
  store i32 %134, i32* %8, align 4
  br label %135

135:                                              ; preds = %122, %115
  %136 = load i32, i32* %6, align 4
  %137 = sext i32 %136 to i64
  %138 = getelementptr inbounds [100 x %struct.student], [100 x %struct.student]* @stu, i64 0, i64 %137
  %139 = getelementptr inbounds %struct.student, %struct.student* %138, i32 0, i32 1
  %140 = load i32, i32* %139, align 4
  %141 = icmp sgt i32 %140, 85
  br i1 %141, label %142, label %163

142:                                              ; preds = %135
  %143 = load i32, i32* %6, align 4
  %144 = sext i32 %143 to i64
  %145 = getelementptr inbounds [100 x %struct.student], [100 x %struct.student]* @stu, i64 0, i64 %144
  %146 = getelementptr inbounds %struct.student, %struct.student* %145, i32 0, i32 4
  %147 = load i8, i8* %146, align 1
  %148 = sext i8 %147 to i32
  %149 = icmp eq i32 %148, 89
  br i1 %149, label %150, label %163

150:                                              ; preds = %142
  %151 = load i32*, i32** %9, align 8
  %152 = load i32, i32* %6, align 4
  %153 = sext i32 %152 to i64
  %154 = getelementptr inbounds i32, i32* %151, i64 %153
  %155 = load i32, i32* %154, align 4
  %156 = add nsw i32 %155, 1000
  %157 = load i32*, i32** %9, align 8
  %158 = load i32, i32* %6, align 4
  %159 = sext i32 %158 to i64
  %160 = getelementptr inbounds i32, i32* %157, i64 %159
  store i32 %156, i32* %160, align 4
  %161 = load i32, i32* %8, align 4
  %162 = add nsw i32 %161, 1000
  store i32 %162, i32* %8, align 4
  br label %163

163:                                              ; preds = %150, %142, %135
  %164 = load i32, i32* %6, align 4
  %165 = sext i32 %164 to i64
  %166 = getelementptr inbounds [100 x %struct.student], [100 x %struct.student]* @stu, i64 0, i64 %165
  %167 = getelementptr inbounds %struct.student, %struct.student* %166, i32 0, i32 2
  %168 = load i32, i32* %167, align 4
  %169 = icmp sgt i32 %168, 80
  br i1 %169, label %170, label %191

170:                                              ; preds = %163
  %171 = load i32, i32* %6, align 4
  %172 = sext i32 %171 to i64
  %173 = getelementptr inbounds [100 x %struct.student], [100 x %struct.student]* @stu, i64 0, i64 %172
  %174 = getelementptr inbounds %struct.student, %struct.student* %173, i32 0, i32 3
  %175 = load i8, i8* %174, align 4
  %176 = sext i8 %175 to i32
  %177 = icmp eq i32 %176, 89
  br i1 %177, label %178, label %191

178:                                              ; preds = %170
  %179 = load i32*, i32** %9, align 8
  %180 = load i32, i32* %6, align 4
  %181 = sext i32 %180 to i64
  %182 = getelementptr inbounds i32, i32* %179, i64 %181
  %183 = load i32, i32* %182, align 4
  %184 = add nsw i32 %183, 850
  %185 = load i32*, i32** %9, align 8
  %186 = load i32, i32* %6, align 4
  %187 = sext i32 %186 to i64
  %188 = getelementptr inbounds i32, i32* %185, i64 %187
  store i32 %184, i32* %188, align 4
  %189 = load i32, i32* %8, align 4
  %190 = add nsw i32 %189, 850
  store i32 %190, i32* %8, align 4
  br label %191

191:                                              ; preds = %178, %170, %163
  br label %192

192:                                              ; preds = %191
  %193 = load i32, i32* %6, align 4
  %194 = add nsw i32 %193, 1
  store i32 %194, i32* %6, align 4
  br label %57

195:                                              ; preds = %57
  %196 = load i32*, i32** %9, align 8
  %197 = getelementptr inbounds i32, i32* %196, i64 0
  %198 = load i32, i32* %197, align 4
  store i32 %198, i32* %10, align 4
  store i32 0, i32* %6, align 4
  br label %199

199:                                              ; preds = %219, %195
  %200 = load i32, i32* %6, align 4
  %201 = load i32, i32* %7, align 4
  %202 = icmp slt i32 %200, %201
  br i1 %202, label %203, label %222

203:                                              ; preds = %199
  %204 = load i32*, i32** %9, align 8
  %205 = load i32, i32* %6, align 4
  %206 = sext i32 %205 to i64
  %207 = getelementptr inbounds i32, i32* %204, i64 %206
  %208 = load i32, i32* %207, align 4
  %209 = load i32, i32* %10, align 4
  %210 = icmp sgt i32 %208, %209
  br i1 %210, label %211, label %218

211:                                              ; preds = %203
  %212 = load i32*, i32** %9, align 8
  %213 = load i32, i32* %6, align 4
  %214 = sext i32 %213 to i64
  %215 = getelementptr inbounds i32, i32* %212, i64 %214
  %216 = load i32, i32* %215, align 4
  store i32 %216, i32* %10, align 4
  %217 = load i32, i32* %6, align 4
  store i32 %217, i32* %11, align 4
  br label %218

218:                                              ; preds = %211, %203
  br label %219

219:                                              ; preds = %218
  %220 = load i32, i32* %6, align 4
  %221 = add nsw i32 %220, 1
  store i32 %221, i32* %6, align 4
  br label %199

222:                                              ; preds = %199
  %223 = load i32, i32* %11, align 4
  %224 = sext i32 %223 to i64
  %225 = getelementptr inbounds [100 x %struct.student], [100 x %struct.student]* @stu, i64 0, i64 %224
  %226 = getelementptr inbounds %struct.student, %struct.student* %225, i32 0, i32 0
  %227 = getelementptr inbounds [20 x i8], [20 x i8]* %226, i64 0, i64 0
  %228 = load i32, i32* %10, align 4
  %229 = load i32, i32* %8, align 4
  %230 = call i32 (i8*, ...) @printf(i8* getelementptr inbounds ([10 x i8], [10 x i8]* @.str.2, i64 0, i64 0), i8* %227, i32 %228, i32 %229)
  %231 = load i32*, i32** %9, align 8
  %232 = bitcast i32* %231 to i8*
  call void @free(i8* %232) #3
  ret i32 0
}

declare dso_local i32 @__isoc99_scanf(i8*, ...) #1

; Function Attrs: nounwind
declare dso_local noalias i8* @malloc(i64) #2

declare dso_local i32 @printf(i8*, ...) #1

; Function Attrs: nounwind
declare dso_local void @free(i8*) #2


!llvm.module.flags = !{!0}
!llvm.ident = !{!1}

!0 = !{i32 1, !"wchar_size", i32 4}
!1 = !{!"clang version 10.0.0-4ubuntu1 "}
